; Function Attrs: mustprogress uwtable
define hidden noundef ptr @_ZN3smt15model_generator14mk_model_valueEPNS_5enodeE(ptr nocapture noundef nonnull readonly align 8 dereferenceable(104) %this, ptr nocapture noundef readonly %r) local_unnamed_addr #3 align 2 {
entry:
  %0 = load ptr, ptr %r, align 8
  %m_kind.i.i.i = getelementptr inbounds i8, ptr %0, i64 4
  %bf.load.i.i.i = load i32, ptr %m_kind.i.i.i, align 4
  %bf.clear.i.i.i = and i32 %bf.load.i.i.i, 65535
  %cmp.i.i = icmp eq i32 %bf.clear.i.i.i, 0
  br i1 %cmp.i.i, label %land.rhs.i.i, label %if.then

land.rhs.i.i:                                     ; preds = %entry
  %m_decl.i.i.i = getelementptr inbounds i8, ptr %0, i64 16
  %1 = load ptr, ptr %m_decl.i.i.i, align 8
  %m_info.i.i.i.i = getelementptr inbounds i8, ptr %1, i64 24
  %2 = load ptr, ptr %m_info.i.i.i.i, align 8
  %tobool.not.i.i.i.i = icmp eq ptr %2, null
  br i1 %tobool.not.i.i.i.i, label %if.then, label %_ZNK11ast_manager14is_model_valueEPK4expr.exit

_ZNK11ast_manager14is_model_valueEPK4expr.exit:   ; preds = %land.rhs.i.i
  %3 = load i32, ptr %2, align 8
  %cmp.i.i.i.i.i = icmp eq i32 %3, 3
  %m_kind.i.i.i.i.i = getelementptr inbounds i8, ptr %2, i64 4
  %4 = load i32, ptr %m_kind.i.i.i.i.i, align 4
  %cmp2.i.i.i.i.i = icmp eq i32 %4, 0
  %5 = select i1 %cmp.i.i.i.i.i, i1 %cmp2.i.i.i.i.i, i1 false
  br i1 %5, label %if.end, label %if.then

if.then:                                          ; preds = %land.rhs.i.i, %entry, %_ZNK11ast_manager14is_model_valueEPK4expr.exit
  %call.i = tail call noundef ptr @_ZNK4expr8get_sortEv(ptr noundef nonnull align 4 dereferenceable(16) %0)
  %m_model = getelementptr inbounds i8, ptr %this, i64 72
  %6 = load ptr, ptr %m_model, align 8
  %vtable = load ptr, ptr %6, align 8
  %vfn = getelementptr inbounds i8, ptr %vtable, i64 48
  %7 = load ptr, ptr %vfn, align 8
  %call5 = tail call noundef ptr %7(ptr noundef nonnull align 8 dereferenceable(177) %6, ptr noundef %call.i)
  br label %if.end

if.end:                                           ; preds = %if.then, %_ZNK11ast_manager14is_model_valueEPK4expr.exit
  %n.0 = phi ptr [ %0, %_ZNK11ast_manager14is_model_valueEPK4expr.exit ], [ %call5, %if.then ]
  %call6 = tail call noalias noundef ptr @_ZN6memory8allocateEm(i64 noundef 16)
  store ptr getelementptr inbounds ({ [7 x ptr] }, ptr @_ZTVN3smt17expr_wrapper_procE, i64 0, i32 0, i64 2), ptr %call6, align 8
  %m_value.i = getelementptr inbounds i8, ptr %call6, i64 8
  store ptr %n.0, ptr %m_value.i, align 8
  ret ptr %call6
}